target datalayout = "e-m:e-p270:32:32-p271:32:32-p272:64:64-i64:64-i128:128-f80:128-n8:16:32:64-S128"
target triple = "x86_64-pc-linux-gnu"

%class.CrowdToolState = type <{ %struct.SampleToolState, ptr, ptr, ptr, [3 x float], i32, %struct.dtCrowdAgentDebugInfo, ptr, [128 x %"struct.CrowdToolState::AgentTrail"], %class.ValueHistory, %class.ValueHistory, %struct.CrowdToolParams, i8, [7 x i8] }>
%struct.SampleToolState = type { ptr }
%struct.dtCrowdAgentDebugInfo = type { i32, [3 x float], [3 x float], ptr }
%"struct.CrowdToolState::AgentTrail" = type { [192 x float], i32 }
%class.ValueHistory = type { [256 x float], i32 }
%struct.CrowdToolParams = type { i8, i8, i8, i8, i8, i8, i8, i8, i8, i8, i8, i8, i8, i8, i8, i8, i8, i8, float, i8, float }
%struct.dtCrowdAgentParams = type { float, float, float, float, float, float, float, i8, i8, i8, ptr }

; Function Attrs: mustprogress nounwind uwtable
define linkonce_odr dso_local void @_Z7dtVcopyPfPKf(ptr noundef %0, ptr noundef %1) #1 comdat {
  %3 = alloca ptr, align 8
  %4 = alloca ptr, align 8
  store ptr %0, ptr %3, align 8
  store ptr %1, ptr %4, align 8
  %5 = load ptr, ptr %4, align 8
  %6 = getelementptr inbounds float, ptr %5, i64 0
  %7 = load float, ptr %6, align 4
  %8 = load ptr, ptr %3, align 8
  %9 = getelementptr inbounds float, ptr %8, i64 0
  store float %7, ptr %9, align 4
  %10 = load ptr, ptr %4, align 8
  %11 = getelementptr inbounds float, ptr %10, i64 1
  %12 = load float, ptr %11, align 4
  %13 = load ptr, ptr %3, align 8
  %14 = getelementptr inbounds float, ptr %13, i64 1
  store float %12, ptr %14, align 4
  %15 = load ptr, ptr %4, align 8
  %16 = getelementptr inbounds float, ptr %15, i64 2
  %17 = load float, ptr %16, align 4
  %18 = load ptr, ptr %3, align 8
  %19 = getelementptr inbounds float, ptr %18, i64 2
  store float %17, ptr %19, align 4
  ret void
}

; Function Attrs: mustprogress uwtable
define dso_local void @_ZN14CrowdToolState8addAgentEPKf(ptr noundef nonnull align 8 dereferenceable(101001) %0, ptr noundef %1) #0 align 2 {
  %3 = alloca ptr, align 8
  %4 = alloca ptr, align 8
  %5 = alloca ptr, align 8
  %6 = alloca %struct.dtCrowdAgentParams, align 8
  %7 = alloca i32, align 4
  %8 = alloca ptr, align 8
  %9 = alloca i32, align 4
  store ptr %0, ptr %3, align 8
  store ptr %1, ptr %4, align 8
  %10 = load ptr, ptr %3, align 8
  %11 = getelementptr inbounds %class.CrowdToolState, ptr %10, i32 0, i32 1
  %12 = load ptr, ptr %11, align 8
  %13 = icmp ne ptr %12, null
  br i1 %13, label %15, label %14

14:                                               ; preds = %2
  br label %150

15:                                               ; preds = %2
  %16 = getelementptr inbounds %class.CrowdToolState, ptr %10, i32 0, i32 1
  %17 = load ptr, ptr %16, align 8
  %18 = load ptr, ptr %17, align 8
  %19 = getelementptr inbounds ptr, ptr %18, i64 17
  %20 = load ptr, ptr %19, align 8
  %21 = call noundef ptr %20(ptr noundef nonnull align 8 dereferenceable(200) %17)
  store ptr %21, ptr %5, align 8
  call void @llvm.memset.p0.i64(ptr align 8 %6, i8 0, i64 40, i1 false)
  %22 = getelementptr inbounds %class.CrowdToolState, ptr %10, i32 0, i32 1
  %23 = load ptr, ptr %22, align 8
  %24 = load ptr, ptr %23, align 8
  %25 = getelementptr inbounds ptr, ptr %24, i64 18
  %26 = load ptr, ptr %25, align 8
  %27 = call noundef float %26(ptr noundef nonnull align 8 dereferenceable(200) %23)
  %28 = getelementptr inbounds %struct.dtCrowdAgentParams, ptr %6, i32 0, i32 0
  store float %27, ptr %28, align 8
  %29 = getelementptr inbounds %class.CrowdToolState, ptr %10, i32 0, i32 1
  %30 = load ptr, ptr %29, align 8
  %31 = load ptr, ptr %30, align 8
  %32 = getelementptr inbounds ptr, ptr %31, i64 19
  %33 = load ptr, ptr %32, align 8
  %34 = call noundef float %33(ptr noundef nonnull align 8 dereferenceable(200) %30)
  %35 = getelementptr inbounds %struct.dtCrowdAgentParams, ptr %6, i32 0, i32 1
  store float %34, ptr %35, align 4
  %36 = getelementptr inbounds %struct.dtCrowdAgentParams, ptr %6, i32 0, i32 2
  store float 8.000000e+00, ptr %36, align 8
  %37 = getelementptr inbounds %struct.dtCrowdAgentParams, ptr %6, i32 0, i32 3
  store float 3.500000e+00, ptr %37, align 4
  %38 = getelementptr inbounds %struct.dtCrowdAgentParams, ptr %6, i32 0, i32 0
  %39 = load float, ptr %38, align 8
  %40 = fmul float %39, 1.200000e+01
  %41 = getelementptr inbounds %struct.dtCrowdAgentParams, ptr %6, i32 0, i32 4
  store float %40, ptr %41, align 8
  %42 = getelementptr inbounds %struct.dtCrowdAgentParams, ptr %6, i32 0, i32 0
  %43 = load float, ptr %42, align 8
  %44 = fmul float %43, 3.000000e+01
  %45 = getelementptr inbounds %struct.dtCrowdAgentParams, ptr %6, i32 0, i32 5
  store float %44, ptr %45, align 4
  %46 = getelementptr inbounds %struct.dtCrowdAgentParams, ptr %6, i32 0, i32 7
  store i8 0, ptr %46, align 4
  %47 = getelementptr inbounds %class.CrowdToolState, ptr %10, i32 0, i32 11
  %48 = getelementptr inbounds %struct.CrowdToolParams, ptr %47, i32 0, i32 14
  %49 = load i8, ptr %48, align 2
  %50 = trunc i8 %49 to i1
  br i1 %50, label %51, label %57

51:                                               ; preds = %15
  %52 = getelementptr inbounds %struct.dtCrowdAgentParams, ptr %6, i32 0, i32 7
  %53 = load i8, ptr %52, align 4
  %54 = zext i8 %53 to i32
  %55 = or i32 %54, 1
  %56 = trunc i32 %55 to i8
  store i8 %56, ptr %52, align 4
  br label %57

57:                                               ; preds = %51, %15
  %58 = getelementptr inbounds %class.CrowdToolState, ptr %10, i32 0, i32 11
  %59 = getelementptr inbounds %struct.CrowdToolParams, ptr %58, i32 0, i32 15
  %60 = load i8, ptr %59, align 1
  %61 = trunc i8 %60 to i1
  br i1 %61, label %62, label %68

62:                                               ; preds = %57
  %63 = getelementptr inbounds %struct.dtCrowdAgentParams, ptr %6, i32 0, i32 7
  %64 = load i8, ptr %63, align 4
  %65 = zext i8 %64 to i32
  %66 = or i32 %65, 8
  %67 = trunc i32 %66 to i8
  store i8 %67, ptr %63, align 4
  br label %68

68:                                               ; preds = %62, %57
  %69 = getelementptr inbounds %class.CrowdToolState, ptr %10, i32 0, i32 11
  %70 = getelementptr inbounds %struct.CrowdToolParams, ptr %69, i32 0, i32 16
  %71 = load i8, ptr %70, align 8
  %72 = trunc i8 %71 to i1
  br i1 %72, label %73, label %79

73:                                               ; preds = %68
  %74 = getelementptr inbounds %struct.dtCrowdAgentParams, ptr %6, i32 0, i32 7
  %75 = load i8, ptr %74, align 4
  %76 = zext i8 %75 to i32
  %77 = or i32 %76, 16
  %78 = trunc i32 %77 to i8
  store i8 %78, ptr %74, align 4
  br label %79

79:                                               ; preds = %73, %68
  %80 = getelementptr inbounds %class.CrowdToolState, ptr %10, i32 0, i32 11
  %81 = getelementptr inbounds %struct.CrowdToolParams, ptr %80, i32 0, i32 17
  %82 = load i8, ptr %81, align 1
  %83 = trunc i8 %82 to i1
  br i1 %83, label %84, label %90

84:                                               ; preds = %79
  %85 = getelementptr inbounds %struct.dtCrowdAgentParams, ptr %6, i32 0, i32 7
  %86 = load i8, ptr %85, align 4
  %87 = zext i8 %86 to i32
  %88 = or i32 %87, 2
  %89 = trunc i32 %88 to i8
  store i8 %89, ptr %85, align 4
  br label %90

90:                                               ; preds = %84, %79
  %91 = getelementptr inbounds %class.CrowdToolState, ptr %10, i32 0, i32 11
  %92 = getelementptr inbounds %struct.CrowdToolParams, ptr %91, i32 0, i32 19
  %93 = load i8, ptr %92, align 8
  %94 = trunc i8 %93 to i1
  br i1 %94, label %95, label %101

95:                                               ; preds = %90
  %96 = getelementptr inbounds %struct.dtCrowdAgentParams, ptr %6, i32 0, i32 7
  %97 = load i8, ptr %96, align 4
  %98 = zext i8 %97 to i32
  %99 = or i32 %98, 4
  %100 = trunc i32 %99 to i8
  store i8 %100, ptr %96, align 4
  br label %101

101:                                              ; preds = %95, %90
  %102 = getelementptr inbounds %class.CrowdToolState, ptr %10, i32 0, i32 11
  %103 = getelementptr inbounds %struct.CrowdToolParams, ptr %102, i32 0, i32 18
  %104 = load float, ptr %103, align 4
  %105 = fptoui float %104 to i8
  %106 = getelementptr inbounds %struct.dtCrowdAgentParams, ptr %6, i32 0, i32 8
  store i8 %105, ptr %106, align 1
  %107 = getelementptr inbounds %class.CrowdToolState, ptr %10, i32 0, i32 11
  %108 = getelementptr inbounds %struct.CrowdToolParams, ptr %107, i32 0, i32 20
  %109 = load float, ptr %108, align 4
  %110 = getelementptr inbounds %struct.dtCrowdAgentParams, ptr %6, i32 0, i32 6
  store float %109, ptr %110, align 8
  %111 = load ptr, ptr %5, align 8
  %112 = load ptr, ptr %4, align 8
  %113 = call noundef i32 @_ZN7dtCrowd8addAgentEPKfPK18dtCrowdAgentParams(ptr noundef nonnull align 8 dereferenceable(5072) %111, ptr noundef %112, ptr noundef %6)
  store i32 %113, ptr %7, align 4
  %114 = load i32, ptr %7, align 4
  %115 = icmp ne i32 %114, -1
  br i1 %115, label %116, label %150

116:                                              ; preds = %101
  %117 = getelementptr inbounds %class.CrowdToolState, ptr %10, i32 0, i32 5
  %118 = load i32, ptr %117, align 4
  %119 = icmp ne i32 %118, 0
  br i1 %119, label %120, label %128

120:                                              ; preds = %116
  %121 = load ptr, ptr %5, align 8
  %122 = load i32, ptr %7, align 4
  %123 = getelementptr inbounds %class.CrowdToolState, ptr %10, i32 0, i32 5
  %124 = load i32, ptr %123, align 4
  %125 = getelementptr inbounds %class.CrowdToolState, ptr %10, i32 0, i32 4
  %126 = getelementptr inbounds [3 x float], ptr %125, i64 0, i64 0
  %127 = call noundef zeroext i1 @_ZN7dtCrowd17requestMoveTargetEijPKf(ptr noundef nonnull align 8 dereferenceable(5072) %121, i32 noundef %122, i32 noundef %124, ptr noundef %126)
  br label %128

128:                                              ; preds = %120, %116
  %129 = getelementptr inbounds %class.CrowdToolState, ptr %10, i32 0, i32 8
  %130 = load i32, ptr %7, align 4
  %131 = sext i32 %130 to i64
  %132 = getelementptr inbounds [128 x %"struct.CrowdToolState::AgentTrail"], ptr %129, i64 0, i64 %131
  store ptr %132, ptr %8, align 8
  store i32 0, ptr %9, align 4
  br label %133

133:                                              ; preds = %144, %128
  %134 = load i32, ptr %9, align 4
  %135 = icmp slt i32 %134, 64
  br i1 %135, label %136, label %147

136:                                              ; preds = %133
  %137 = load ptr, ptr %8, align 8
  %138 = getelementptr inbounds %"struct.CrowdToolState::AgentTrail", ptr %137, i32 0, i32 0
  %139 = load i32, ptr %9, align 4
  %140 = mul nsw i32 %139, 3
  %141 = sext i32 %140 to i64
  %142 = getelementptr inbounds [192 x float], ptr %138, i64 0, i64 %141
  %143 = load ptr, ptr %4, align 8
  call void @_Z7dtVcopyPfPKf(ptr noundef %142, ptr noundef %143)
  br label %144

144:                                              ; preds = %136
  %145 = load i32, ptr %9, align 4
  %146 = add nsw i32 %145, 1
  store i32 %146, ptr %9, align 4
  br label %133, !llvm.loop !28

147:                                              ; preds = %133
  %148 = load ptr, ptr %8, align 8
  %149 = getelementptr inbounds %"struct.CrowdToolState::AgentTrail", ptr %148, i32 0, i32 1
  store i32 0, ptr %149, align 4
  br label %150

150:                                              ; preds = %147, %101, %14
  ret void
}