; Function Attrs: mustprogress uwtable
define dso_local void @_ZN14CrowdToolState8addAgentEPKf(ptr noundef nonnull align 8 dereferenceable(101001) %0, ptr noundef %1) local_unnamed_addr #0 align 2 {
  %3 = alloca %struct.dtCrowdAgentParams, align 8
  %4 = getelementptr inbounds i8, ptr %0, i64 8
  %5 = load ptr, ptr %4, align 8
  %.not = icmp eq ptr %5, null
  br i1 %.not, label %89, label %6

6:                                                ; preds = %2
  %7 = load ptr, ptr %5, align 8
  %8 = getelementptr inbounds i8, ptr %7, i64 136
  %9 = load ptr, ptr %8, align 8
  %10 = tail call noundef ptr %9(ptr noundef nonnull align 8 dereferenceable(200) %5)
  %11 = getelementptr inbounds i8, ptr %3, i64 24
  call void @llvm.memset.p0.i64(ptr noundef nonnull align 8 dereferenceable(40) %11, i8 0, i64 16, i1 false)
  %12 = load ptr, ptr %4, align 8
  %13 = load ptr, ptr %12, align 8
  %14 = getelementptr inbounds i8, ptr %13, i64 144
  %15 = load ptr, ptr %14, align 8
  %16 = tail call noundef float %15(ptr noundef nonnull align 8 dereferenceable(200) %12)
  store float %16, ptr %3, align 8
  %17 = load ptr, ptr %4, align 8
  %18 = load ptr, ptr %17, align 8
  %19 = getelementptr inbounds i8, ptr %18, i64 152
  %20 = load ptr, ptr %19, align 8
  %21 = tail call noundef float %20(ptr noundef nonnull align 8 dereferenceable(200) %17)
  %22 = getelementptr inbounds i8, ptr %3, i64 4
  store float %21, ptr %22, align 4
  %23 = getelementptr inbounds i8, ptr %3, i64 8
  store <2 x float> <float 8.000000e+00, float 3.500000e+00>, ptr %23, align 8
  %24 = getelementptr inbounds i8, ptr %3, i64 16
  %25 = insertelement <2 x float> poison, float %16, i64 0
  %26 = shufflevector <2 x float> %25, <2 x float> poison, <2 x i32> zeroinitializer
  %27 = fmul <2 x float> %26, <float 1.200000e+01, float 3.000000e+01>
  store <2 x float> %27, ptr %24, align 8
  %28 = getelementptr inbounds i8, ptr %3, i64 28
  %29 = getelementptr inbounds i8, ptr %0, i64 100982
  %30 = load i8, ptr %29, align 2
  %31 = and i8 %30, 1
  store i8 %31, ptr %28, align 4
  %32 = getelementptr inbounds i8, ptr %0, i64 100983
  %33 = load i8, ptr %32, align 1
  %34 = and i8 %33, 1
  %.not16 = icmp eq i8 %34, 0
  br i1 %.not16, label %37, label %35

35:                                               ; preds = %6
  %36 = or disjoint i8 %31, 8
  store i8 %36, ptr %28, align 4
  br label %37

37:                                               ; preds = %35, %6
  %38 = phi i8 [ %36, %35 ], [ %31, %6 ]
  %39 = getelementptr inbounds i8, ptr %0, i64 100984
  %40 = load i8, ptr %39, align 8
  %41 = and i8 %40, 1
  %.not17 = icmp eq i8 %41, 0
  br i1 %.not17, label %44, label %42

42:                                               ; preds = %37
  %43 = or i8 %38, 16
  store i8 %43, ptr %28, align 4
  br label %44

44:                                               ; preds = %42, %37
  %45 = phi i8 [ %43, %42 ], [ %38, %37 ]
  %46 = getelementptr inbounds i8, ptr %0, i64 100985
  %47 = load i8, ptr %46, align 1
  %48 = and i8 %47, 1
  %.not18 = icmp eq i8 %48, 0
  br i1 %.not18, label %51, label %49

49:                                               ; preds = %44
  %50 = or i8 %45, 2
  store i8 %50, ptr %28, align 4
  br label %51

51:                                               ; preds = %49, %44
  %52 = phi i8 [ %50, %49 ], [ %45, %44 ]
  %53 = getelementptr inbounds i8, ptr %0, i64 100992
  %54 = load i8, ptr %53, align 8
  %55 = and i8 %54, 1
  %.not19 = icmp eq i8 %55, 0
  br i1 %.not19, label %58, label %56

56:                                               ; preds = %51
  %57 = or i8 %52, 4
  store i8 %57, ptr %28, align 4
  br label %58

58:                                               ; preds = %56, %51
  %59 = getelementptr inbounds i8, ptr %0, i64 100988
  %60 = load float, ptr %59, align 4
  %61 = fptoui float %60 to i8
  %62 = getelementptr inbounds i8, ptr %3, i64 29
  store i8 %61, ptr %62, align 1
  %63 = getelementptr inbounds i8, ptr %0, i64 100996
  %64 = load float, ptr %63, align 4
  %65 = getelementptr inbounds i8, ptr %3, i64 24
  store float %64, ptr %65, align 8
  %66 = call noundef i32 @_ZN7dtCrowd8addAgentEPKfPK18dtCrowdAgentParams(ptr noundef nonnull align 8 dereferenceable(5072) %10, ptr noundef %1, ptr noundef nonnull %3)
  %.not20 = icmp eq i32 %66, -1
  br i1 %.not20, label %89, label %67

67:                                               ; preds = %58
  %68 = getelementptr inbounds i8, ptr %0, i64 44
  %69 = load i32, ptr %68, align 4
  %.not21 = icmp eq i32 %69, 0
  br i1 %.not21, label %73, label %70

70:                                               ; preds = %67
  %71 = getelementptr inbounds i8, ptr %0, i64 32
  %72 = call noundef zeroext i1 @_ZN7dtCrowd17requestMoveTargetEijPKf(ptr noundef nonnull align 8 dereferenceable(5072) %10, i32 noundef %66, i32 noundef %69, ptr noundef nonnull %71)
  br label %73

73:                                               ; preds = %70, %67
  %74 = getelementptr inbounds i8, ptr %0, i64 96
  %75 = sext i32 %66 to i64
  %76 = getelementptr inbounds [128 x %"struct.CrowdToolState::AgentTrail"], ptr %74, i64 0, i64 %75
  %77 = getelementptr inbounds i8, ptr %1, i64 4
  %78 = getelementptr inbounds i8, ptr %1, i64 8
  br label %79

79:                                               ; preds = %73, %79
  %indvars.iv = phi i64 [ 0, %73 ], [ %indvars.iv.next, %79 ]
  %80 = mul nuw nsw i64 %indvars.iv, 3
  %81 = getelementptr inbounds [192 x float], ptr %76, i64 0, i64 %80
  %82 = load float, ptr %1, align 4
  store float %82, ptr %81, align 4
  %83 = load float, ptr %77, align 4
  %84 = getelementptr inbounds i8, ptr %81, i64 4
  store float %83, ptr %84, align 4
  %85 = load float, ptr %78, align 4
  %86 = getelementptr inbounds i8, ptr %81, i64 8
  store float %85, ptr %86, align 4
  %indvars.iv.next = add nuw nsw i64 %indvars.iv, 1
  %exitcond.not = icmp eq i64 %indvars.iv.next, 64
  br i1 %exitcond.not, label %87, label %79, !llvm.loop !29

87:                                               ; preds = %79
  %88 = getelementptr inbounds i8, ptr %76, i64 768
  store i32 0, ptr %88, align 4
  br label %89

89:                                               ; preds = %2, %87, %58
  ret void
}